(dp1
S'files'
p2
(dp3
S'CampusHelper_urls'
p4
(dp5
S'index'
p6
(dp7
S'html_filename'
p8
S'CampusHelper_urls.html'
p9
sS'name'
p10
S'CampusHelper/urls'
p11
sS'nums'
p12
ccopy_reg
_reconstructor
p13
(ccoverage.results
Numbers
p14
c__builtin__
object
p15
NtRp16
(dp17
S'n_files'
p18
I1
sS'n_branches'
p19
I0
sS'n_statements'
p20
I4
sS'n_excluded'
p21
I0
sS'n_partial_branches'
p22
I0
sS'n_missing'
p23
I0
sS'n_missing_branches'
p24
I0
sbssS'hash'
p25
S'\xd6*vc9 j\xa2\xc2\xe1|q\x9d\xe7\xdf\x90'
p26
ssS'CampusHelperApp_migrations_0005_task_category'
p27
(dp28
g6
(dp29
g8
S'CampusHelperApp_migrations_0005_task_category.html'
p30
sg10
S'CampusHelperApp/migrations/0005_task_category'
p31
sg12
g13
(g14
g15
NtRp32
(dp33
g18
I1
sg19
I0
sg20
I5
sg21
I0
sg22
I0
sg23
I0
sg24
I0
sbssg25
S'\xf9\xb3\xae8\xcc\x8a$\xb3\xde\x1ea{Z0\xb0\xf7'
p34
ssS'CampusHelperApp_migrations_0006_merge'
p35
(dp36
g6
(dp37
g8
S'CampusHelperApp_migrations_0006_merge.html'
p38
sg10
S'CampusHelperApp/migrations/0006_merge'
p39
sg12
g13
(g14
g15
NtRp40
(dp41
g18
I1
sg19
I0
sg20
I5
sg21
I0
sg22
I0
sg23
I0
sg24
I0
sbssg25
S"\xba\xced\x1e\xbeg\xfd'&\xa7\xa9\x980|7a"
p42
ssS'CampusHelperApp_migrations_0004_auto_20141104_0228'
p43
(dp44
g6
(dp45
g8
S'CampusHelperApp_migrations_0004_auto_20141104_0228.html'
p46
sg10
S'CampusHelperApp/migrations/0004_auto_20141104_0228'
p47
sg12
g13
(g14
g15
NtRp48
(dp49
g18
I1
sg19
I0
sg20
I5
sg21
I0
sg22
I0
sg23
I0
sg24
I0
sbssg25
S'\xe9r\xbc2\x9e\x0b9q>\x8c\x19\x853^\xe0q'
p50
ssS'CampusHelperApp_models'
p51
(dp52
g6
(dp53
g8
S'CampusHelperApp_models.html'
p54
sg10
S'CampusHelperApp/models'
p55
sg12
g13
(g14
g15
NtRp56
(dp57
g18
I1
sg19
I0
sg20
I110
sg21
I0
sg22
I0
sg23
I18
sg24
I0
sbssg25
S'[\xdcv\xa4\x8d\xfe\xa6\xd2\x81\xb0G\xa2\x90\x83 \x92'
p58
ssS'CampusHelperApp_migrations_0001_initial'
p59
(dp60
g6
(dp61
g8
S'CampusHelperApp_migrations_0001_initial.html'
p62
sg10
S'CampusHelperApp/migrations/0001_initial'
p63
sg12
g13
(g14
g15
NtRp64
(dp65
g18
I1
sg19
I0
sg20
I6
sg21
I0
sg22
I0
sg23
I0
sg24
I0
sbssg25
S'\xc4\xe5\x94F\x12\x95\xd0\xf5+\xec\xe4_\xf5\xb9\xb1\xd6'
p66
ssS'CampusHelperApp___init__'
p67
(dp68
g6
(dp69
g8
S'CampusHelperApp___init__.html'
p70
sg10
S'CampusHelperApp/__init__'
p71
sg12
g13
(g14
g15
NtRp72
(dp73
g18
I1
sg19
I0
sg20
I0
sg21
I0
sg22
I0
sg23
I0
sg24
I0
sbssg25
S'\xca\xf5\x9f\x7f\x88\xdfa\x831|T\x1d\xbc}\xa5v'
p74
ssS'CampusHelperApp_migrations_0002_auto_20141103_0119'
p75
(dp76
g6
(dp77
g8
S'CampusHelperApp_migrations_0002_auto_20141103_0119.html'
p78
sg10
S'CampusHelperApp/migrations/0002_auto_20141103_0119'
p79
sg12
g13
(g14
g15
NtRp80
(dp81
g18
I1
sg19
I0
sg20
I5
sg21
I0
sg22
I0
sg23
I0
sg24
I0
sbssg25
S'\xd1h\x12\\\xbf\xc2m\x82mP\xd4P\x15\x12\x068'
p82
ssS'manage'
p83
(dp84
g6
(dp85
g8
S'manage.html'
p86
sg10
g83
sg12
g13
(g14
g15
NtRp87
(dp88
g18
I1
sg19
I0
sg20
I6
sg21
I0
sg22
I0
sg23
I0
sg24
I0
sbssg25
S'\x13\xc7\x85t\x11}E$\xfc\x13\x17\xb3\xf2\xa1)s'
p89
ssS'CampusHelperApp_migrations_0004_remove_task_category'
p90
(dp91
g6
(dp92
g8
S'CampusHelperApp_migrations_0004_remove_task_category.html'
p93
sg10
S'CampusHelperApp/migrations/0004_remove_task_category'
p94
sg12
g13
(g14
g15
NtRp95
(dp96
g18
I1
sg19
I0
sg20
I5
sg21
I0
sg22
I0
sg23
I0
sg24
I0
sbssg25
S'\xc1|\xf3F@\xa3\x11M\x1b\x15h\x02C\x13\x164'
p97
ssS'CampusHelperApp_migrations_0007_auto_20141106_2238'
p98
(dp99
g6
(dp100
g8
S'CampusHelperApp_migrations_0007_auto_20141106_2238.html'
p101
sg10
S'CampusHelperApp/migrations/0007_auto_20141106_2238'
p102
sg12
g13
(g14
g15
NtRp103
(dp104
g18
I1
sg19
I0
sg20
I6
sg21
I0
sg22
I0
sg23
I0
sg24
I0
sbssg25
S'\x8fY\xd2.\xd5\t\x06\xb0x\xae\xb9\xc8Z\xcd\xcd`'
p105
ssS'CampusHelperApp_admin'
p106
(dp107
g6
(dp108
g8
S'CampusHelperApp_admin.html'
p109
sg10
S'CampusHelperApp/admin'
p110
sg12
g13
(g14
g15
NtRp111
(dp112
g18
I1
sg19
I0
sg20
I4
sg21
I0
sg22
I0
sg23
I0
sg24
I0
sbssg25
S'\xef<\x05\x83x\xe2g\x06\xff\x06\x01\x93ie\xda\xe5'
p113
ssS'CampusHelperApp_migrations___init__'
p114
(dp115
g6
(dp116
g8
S'CampusHelperApp_migrations___init__.html'
p117
sg10
S'CampusHelperApp/migrations/__init__'
p118
sg12
g13
(g14
g15
NtRp119
(dp120
g18
I1
sg19
I0
sg20
I0
sg21
I0
sg22
I0
sg23
I0
sg24
I0
sbssg25
S'\xca\xf5\x9f\x7f\x88\xdfa\x831|T\x1d\xbc}\xa5v'
p121
ssS'CampusHelperApp_views'
p122
(dp123
g6
(dp124
S'html_filename'
p125
S'CampusHelperApp_views.html'
p126
sS'name'
p127
S'CampusHelperApp/views'
p128
sS'nums'
p129
g13
(g14
g15
NtRp130
(dp131
g18
I1
sg19
I0
sg20
I186
sg21
I0
sg22
I0
sg23
I86
sg24
I0
sbssg25
S'\xcej`\xa2\xf5\x1d9\x90\x95(\xd7{\xd7\x17\x9c\xd5'
p132
ssS'CampusHelperApp_migrations_0002_auto_20141103_0200'
p133
(dp134
g6
(dp135
g8
S'CampusHelperApp_migrations_0002_auto_20141103_0200.html'
p136
sg10
S'CampusHelperApp/migrations/0002_auto_20141103_0200'
p137
sg12
g13
(g14
g15
NtRp138
(dp139
g18
I1
sg19
I0
sg20
I5
sg21
I0
sg22
I0
sg23
I0
sg24
I0
sbssg25
S'pd9\xf8\xde/\xa3\xe9\xba\xcb#\xfb\xe3\xc4\x91\xcc'
p140
ssS'CampusHelper_wsgi'
p141
(dp142
g6
(dp143
g8
S'CampusHelper_wsgi.html'
p144
sg10
S'CampusHelper/wsgi'
p145
sg12
g13
(g14
g15
NtRp146
(dp147
g18
I1
sg19
I0
sg20
I5
sg21
I0
sg22
I0
sg23
I5
sg24
I0
sbssg25
S'\xed-E]\xbf\xb2\x8fsn\xf1+WuK~\xa2'
p148
ssS'CampusHelperApp_tests'
p149
(dp150
g6
(dp151
g125
S'CampusHelperApp_tests.html'
p152
sg127
S'CampusHelperApp/tests'
p153
sg129
g13
(g14
g15
NtRp154
(dp155
g18
I1
sg19
I0
sg20
I151
sg21
I0
sg22
I0
sg23
I0
sg24
I0
sbssg25
S'\x022X\xb6\x92I\xab:\xbf\x80\x9b\xa0V\x15\x96U'
p156
ssS'CampusHelperApp_migrations_0003_merge'
p157
(dp158
g6
(dp159
g8
S'CampusHelperApp_migrations_0003_merge.html'
p160
sg10
S'CampusHelperApp/migrations/0003_merge'
p161
sg12
g13
(g14
g15
NtRp162
(dp163
g18
I1
sg19
I0
sg20
I5
sg21
I0
sg22
I0
sg23
I0
sg24
I0
sbssg25
S'\xcf\xde\xeb2\x8cd\xe2\xbb\xbb\x92\x7f\x0cS2\xba\x1c'
p164
ssS'CampusHelper___init__'
p165
(dp166
g6
(dp167
g8
S'CampusHelper___init__.html'
p168
sg10
S'CampusHelper/__init__'
p169
sg12
g13
(g14
g15
NtRp170
(dp171
g18
I1
sg19
I0
sg20
I0
sg21
I0
sg22
I0
sg23
I0
sg24
I0
sbssg25
S'\xca\xf5\x9f\x7f\x88\xdfa\x831|T\x1d\xbc}\xa5v'
p172
ssS'CampusHelper_settings'
p173
(dp174
g6
(dp175
g8
S'CampusHelper_settings.html'
p176
sg10
S'CampusHelper/settings'
p177
sg12
g13
(g14
g15
NtRp178
(dp179
g18
I1
sg19
I0
sg20
I18
sg21
I0
sg22
I0
sg23
I0
sg24
I0
sbssg25
S'\xb6\xc5\xddXi!J\xb2\x9b\xc75P\t\x02.\xfb'
p180
sssS'version'
p181
S'3.7.1'
p182
sS'settings'
p183
S'\x98\xa8x\xfe"r\xb5K\x98\xb1N\\\x99\x9e\xf3\xe5'
p184
sS'format'
p185
I1
s.